target datalayout = "e-m:e-p270:32:32-p271:32:32-p272:64:64-i64:64-i128:128-f80:128-n8:16:32:64-S128"
target triple = "x86_64-pc-linux-gnu"

%struct.part_row_data_t = type { ptr, i32, i32, ptr, i32 }

; Function Attrs: nounwind uwtable
define dso_local void @part_data_destroy_row(ptr noundef %0, i16 noundef zeroext %1) #0 {
  %3 = alloca ptr, align 8
  %4 = alloca i16, align 2
  %5 = alloca i32, align 4
  store ptr %0, ptr %3, align 8
  store i16 %1, ptr %4, align 2
  call void @llvm.lifetime.start.p0(i64 4, ptr %5) #5
  store i32 0, ptr %5, align 4
  br label %6

6:                                                ; preds = %22, %2
  %7 = load i32, ptr %5, align 4
  %8 = load i16, ptr %4, align 2
  %9 = zext i16 %8 to i32
  %10 = icmp ult i32 %7, %9
  br i1 %10, label %11, label %25

11:                                               ; preds = %6
  %12 = load ptr, ptr %3, align 8
  %13 = load i32, ptr %5, align 4
  %14 = zext i32 %13 to i64
  %15 = getelementptr inbounds nuw %struct.part_row_data_t, ptr %12, i64 %14
  %16 = getelementptr inbounds nuw %struct.part_row_data_t, ptr %15, i32 0, i32 3
  call void @free_core_array(ptr noundef %16)
  %17 = load ptr, ptr %3, align 8
  %18 = load i32, ptr %5, align 4
  %19 = zext i32 %18 to i64
  %20 = getelementptr inbounds nuw %struct.part_row_data_t, ptr %17, i64 %19
  %21 = getelementptr inbounds nuw %struct.part_row_data_t, ptr %20, i32 0, i32 0
  call void @slurm_xfree(ptr noundef %21)
  br label %22

22:                                               ; preds = %11
  %23 = load i32, ptr %5, align 4
  %24 = add i32 %23, 1
  store i32 %24, ptr %5, align 4
  br label %6, !llvm.loop !27

25:                                               ; preds = %6
  call void @slurm_xfree(ptr noundef %3)
  call void @llvm.lifetime.end.p0(i64 4, ptr %5) #5
  ret void
}