; Function Attrs: nounwind uwtable
define dso_local void @part_data_destroy_row(ptr noundef %0, i16 noundef zeroext %1) local_unnamed_addr #0 {
  %3 = alloca ptr, align 8
  store ptr %0, ptr %3, align 8
  %.not = icmp eq i16 %1, 0
  br i1 %.not, label %._crit_edge, label %.lr.ph

.lr.ph:                                           ; preds = %2
  %wide.trip.count = zext i16 %1 to i64
  br label %4

4:                                                ; preds = %.lr.ph, %4
  %indvars.iv = phi i64 [ 0, %.lr.ph ], [ %indvars.iv.next, %4 ]
  %5 = getelementptr inbounds nuw %struct.part_row_data_t, ptr %0, i64 %indvars.iv, i32 3
  tail call void @free_core_array(ptr noundef nonnull %5) #8
  %6 = getelementptr inbounds nuw %struct.part_row_data_t, ptr %0, i64 %indvars.iv
  tail call void @slurm_xfree(ptr noundef %6) #8
  %indvars.iv.next = add nuw nsw i64 %indvars.iv, 1
  %exitcond.not = icmp eq i64 %indvars.iv.next, %wide.trip.count
  br i1 %exitcond.not, label %._crit_edge, label %4, !llvm.loop !21

._crit_edge:                                      ; preds = %4, %2
  call void @slurm_xfree(ptr noundef nonnull %3) #8
  ret void
}